; Function Attrs: mustprogress sspstrong uwtable
define void @_ZN3tbb6detail2r120itt_metadata_ptr_addENS0_2d115itt_domain_enumEPvyNS0_2d021string_resource_indexES4_(i32 noundef %0, ptr noundef %1, i64 noundef %2, i64 noundef %3, ptr noundef %4) local_unnamed_addr #0 personality ptr @__gxx_personality_v0 {
  %6 = alloca i8, align 1
  %7 = alloca %struct.___itt_id, align 8
  %8 = zext i32 %0 to i64
  %9 = getelementptr inbounds nuw [3 x ptr], ptr @_ZN3tbb6detail2r1L11tbb_domainsE, i64 0, i64 %8
  %10 = load ptr, ptr %9, align 8, !tbaa !9
  %11 = icmp eq ptr %10, null
  br i1 %11, label %12, label %_ZN3tbb6detail2r1L14get_itt_domainENS0_2d115itt_domain_enumE.exit.thread

12:                                               ; preds = %5
  %13 = load atomic i8, ptr @_ZN3tbb6detail2r1L22ITT_InitializationDoneE.0 seq_cst, align 1
  %14 = trunc i8 %13 to i1
  br i1 %14, label %_ZN3tbb6detail2r1L14get_itt_domainENS0_2d115itt_domain_enumE.exit, label %15

15:                                               ; preds = %12
  call void @llvm.lifetime.start.p0(i64 1, ptr nonnull %6)
  %16 = atomicrmw xchg ptr @_ZN3tbb6detail2r114__TBB_InitOnce18InitializationLockE, i8 1 seq_cst, align 1
  %17 = icmp ne i8 %16, 0
  store i1 %17, ptr %6, align 1
  %.0..0..0..0..0..0..0..0..0..0..i2.i.i.i = load i8, ptr %6, align 1, !tbaa !3, !range !23, !noundef !24
  %18 = trunc nuw i8 %.0..0..0..0..0..0..0..0..0..0..i2.i.i.i to i1
  call void @llvm.lifetime.end.p0(i64 1, ptr nonnull %6)
  br i1 %18, label %.lr.ph.i.i.i, label %_ZN3tbb6detail2r114__TBB_InitOnce4lockEv.exit.i.i

.lr.ph.i.i.i:                                     ; preds = %15, %_ZN3tbb6detail2d014atomic_backoff5pauseEv.exit.i.i.i
  %.sroa.0.03.i.i.i = phi i32 [ %.sroa.0.1.i.i.i, %_ZN3tbb6detail2d014atomic_backoff5pauseEv.exit.i.i.i ], [ 1, %15 ]
  %19 = icmp slt i32 %.sroa.0.03.i.i.i, 17
  br i1 %19, label %20, label %25

20:                                               ; preds = %.lr.ph.i.i.i
  %21 = icmp sgt i32 %.sroa.0.03.i.i.i, 0
  br i1 %21, label %.lr.ph.i.i.i.i.i, label %_ZN3tbb6detail2d0L13machine_pauseEi.exit.i.i.i.i

.lr.ph.i.i.i.i.i:                                 ; preds = %20, %.lr.ph.i.i.i.i.i
  %.01.i.i.i.i.i = phi i32 [ %22, %.lr.ph.i.i.i.i.i ], [ %.sroa.0.03.i.i.i, %20 ]
  %22 = add nsw i32 %.01.i.i.i.i.i, -1
  tail call void @llvm.x86.sse2.pause()
  %23 = icmp samesign ugt i32 %.01.i.i.i.i.i, 1
  br i1 %23, label %.lr.ph.i.i.i.i.i, label %_ZN3tbb6detail2d0L13machine_pauseEi.exit.i.i.i.i, !llvm.loop !25

_ZN3tbb6detail2d0L13machine_pauseEi.exit.i.i.i.i: ; preds = %.lr.ph.i.i.i.i.i, %20
  %24 = shl nsw i32 %.sroa.0.03.i.i.i, 1
  br label %_ZN3tbb6detail2d014atomic_backoff5pauseEv.exit.i.i.i

25:                                               ; preds = %.lr.ph.i.i.i
  %26 = tail call noundef i32 @sched_yield() #4
  br label %_ZN3tbb6detail2d014atomic_backoff5pauseEv.exit.i.i.i

_ZN3tbb6detail2d014atomic_backoff5pauseEv.exit.i.i.i: ; preds = %25, %_ZN3tbb6detail2d0L13machine_pauseEi.exit.i.i.i.i
  %.sroa.0.1.i.i.i = phi i32 [ %24, %_ZN3tbb6detail2d0L13machine_pauseEi.exit.i.i.i.i ], [ %.sroa.0.03.i.i.i, %25 ]
  call void @llvm.lifetime.start.p0(i64 1, ptr nonnull %6)
  %27 = atomicrmw xchg ptr @_ZN3tbb6detail2r114__TBB_InitOnce18InitializationLockE, i8 1 seq_cst, align 1
  %28 = icmp ne i8 %27, 0
  store i1 %28, ptr %6, align 1
  %.0..0..0..0..0..0..0..0..0..0..i.i.i.i = load i8, ptr %6, align 1, !tbaa !3, !range !23, !noundef !24
  %29 = trunc nuw i8 %.0..0..0..0..0..0..0..0..0..0..i.i.i.i to i1
  call void @llvm.lifetime.end.p0(i64 1, ptr nonnull %6)
  br i1 %29, label %.lr.ph.i.i.i, label %_ZN3tbb6detail2r114__TBB_InitOnce4lockEv.exit.i.i, !llvm.loop !26

_ZN3tbb6detail2r114__TBB_InitOnce4lockEv.exit.i.i: ; preds = %_ZN3tbb6detail2d014atomic_backoff5pauseEv.exit.i.i.i, %15
  tail call void @_ZN3tbb6detail2r133ITT_DoUnsafeOneTimeInitializationEv()
  store atomic i8 0, ptr @_ZN3tbb6detail2r114__TBB_InitOnce18InitializationLockE release, align 1
  br label %_ZN3tbb6detail2r1L14get_itt_domainENS0_2d115itt_domain_enumE.exit

_ZN3tbb6detail2r1L14get_itt_domainENS0_2d115itt_domain_enumE.exit: ; preds = %12, %_ZN3tbb6detail2r114__TBB_InitOnce4lockEv.exit.i.i
  %.pr = load ptr, ptr %9, align 8, !tbaa !9
  %.not = icmp eq ptr %.pr, null
  br i1 %.not, label %42, label %_ZN3tbb6detail2r1L14get_itt_domainENS0_2d115itt_domain_enumE.exit.thread

_ZN3tbb6detail2r1L14get_itt_domainENS0_2d115itt_domain_enumE.exit.thread: ; preds = %5, %_ZN3tbb6detail2r1L14get_itt_domainENS0_2d115itt_domain_enumE.exit
  %30 = phi ptr [ %.pr, %_ZN3tbb6detail2r1L14get_itt_domainENS0_2d115itt_domain_enumE.exit ], [ %10, %5 ]
  %31 = ptrtoint ptr %1 to i64
  %32 = icmp ult i64 %3, 57
  br i1 %32, label %33, label %_ZN3tbb6detail2r1L21ITT_get_string_handleEm.exit

33:                                               ; preds = %_ZN3tbb6detail2r1L14get_itt_domainENS0_2d115itt_domain_enumE.exit.thread
  %34 = getelementptr inbounds nuw [58 x %"struct.tbb::detail::r1::resource_string"], ptr @_ZN3tbb6detail2r1L15strings_for_ittE, i64 0, i64 %3, i32 1
  %35 = load ptr, ptr %34, align 8, !tbaa !15
  br label %_ZN3tbb6detail2r1L21ITT_get_string_handleEm.exit

_ZN3tbb6detail2r1L21ITT_get_string_handleEm.exit: ; preds = %_ZN3tbb6detail2r1L14get_itt_domainENS0_2d115itt_domain_enumE.exit.thread, %33
  %36 = phi ptr [ %35, %33 ], [ null, %_ZN3tbb6detail2r1L14get_itt_domainENS0_2d115itt_domain_enumE.exit.thread ]
  %37 = load volatile i32, ptr %30, align 8, !tbaa !11
  %38 = icmp ne i32 %37, 0
  %39 = load ptr, ptr @__itt_metadata_add_ptr__3_0, align 8
  %40 = icmp ne ptr %39, null
  %or.cond = select i1 %38, i1 %40, i1 false
  br i1 %or.cond, label %41, label %42

41:                                               ; preds = %_ZN3tbb6detail2r1L21ITT_get_string_handleEm.exit
  store i64 %31, ptr %7, align 8, !tbaa !27
  %.sroa.5.0..sroa_idx = getelementptr inbounds nuw i8, ptr %7, i64 8
  store i64 %2, ptr %.sroa.5.0..sroa_idx, align 8, !tbaa !27
  %.sroa.6.0..sroa_idx = getelementptr inbounds nuw i8, ptr %7, i64 16
  store i64 0, ptr %.sroa.6.0..sroa_idx, align 8, !tbaa !27
  tail call void %39(ptr noundef nonnull %30, ptr noundef nonnull byval(%struct.___itt_id) align 8 %7, ptr noundef %36, i32 noundef 1, i64 noundef 1, ptr noundef %4)
  br label %42

42:                                               ; preds = %41, %_ZN3tbb6detail2r1L21ITT_get_string_handleEm.exit, %_ZN3tbb6detail2r1L14get_itt_domainENS0_2d115itt_domain_enumE.exit
  ret void
}